target datalayout = "e-m:e-p270:32:32-p271:32:32-p272:64:64-i64:64-i128:128-f80:128-n8:16:32:64-S128"
target triple = "x86_64-pc-linux-gnu"

@mt = internal global [624 x i64] zeroinitializer, align 16
@mti = internal global i32 625, align 4

; Function Attrs: nounwind uwtable
define void @init_genrand(i64 noundef %0) #0 {
  %2 = alloca i64, align 8
  store i64 %0, ptr %2, align 8
  %3 = load i64, ptr %2, align 8
  %4 = and i64 %3, 4294967295
  store i64 %4, ptr @mt, align 16
  store i32 1, ptr @mti, align 4
  br label %5

5:                                                ; preds = %33, %1
  %6 = load i32, ptr @mti, align 4
  %7 = icmp slt i32 %6, 624
  br i1 %7, label %8, label %36

8:                                                ; preds = %5
  %9 = load i32, ptr @mti, align 4
  %10 = sub nsw i32 %9, 1
  %11 = sext i32 %10 to i64
  %12 = getelementptr inbounds [624 x i64], ptr @mt, i64 0, i64 %11
  %13 = load i64, ptr %12, align 8
  %14 = load i32, ptr @mti, align 4
  %15 = sub nsw i32 %14, 1
  %16 = sext i32 %15 to i64
  %17 = getelementptr inbounds [624 x i64], ptr @mt, i64 0, i64 %16
  %18 = load i64, ptr %17, align 8
  %19 = lshr i64 %18, 30
  %20 = xor i64 %13, %19
  %21 = mul i64 1812433253, %20
  %22 = load i32, ptr @mti, align 4
  %23 = sext i32 %22 to i64
  %24 = add i64 %21, %23
  %25 = load i32, ptr @mti, align 4
  %26 = sext i32 %25 to i64
  %27 = getelementptr inbounds [624 x i64], ptr @mt, i64 0, i64 %26
  store i64 %24, ptr %27, align 8
  %28 = load i32, ptr @mti, align 4
  %29 = sext i32 %28 to i64
  %30 = getelementptr inbounds [624 x i64], ptr @mt, i64 0, i64 %29
  %31 = load i64, ptr %30, align 8
  %32 = and i64 %31, 4294967295
  store i64 %32, ptr %30, align 8
  br label %33

33:                                               ; preds = %8
  %34 = load i32, ptr @mti, align 4
  %35 = add nsw i32 %34, 1
  store i32 %35, ptr @mti, align 4
  br label %5

36:                                               ; preds = %5
  ret void
}

; Function Attrs: nounwind uwtable
define void @init_by_array(ptr noundef %0, i32 noundef %1) #0 {
  %3 = alloca ptr, align 8
  %4 = alloca i32, align 4
  %5 = alloca i32, align 4
  %6 = alloca i32, align 4
  %7 = alloca i32, align 4
  store ptr %0, ptr %3, align 8
  store i32 %1, ptr %4, align 4
  call void @init_genrand(i64 noundef 19650218)
  store i32 1, ptr %5, align 4
  store i32 0, ptr %6, align 4
  %8 = load i32, ptr %4, align 4
  %9 = icmp sgt i32 624, %8
  br i1 %9, label %10, label %11

10:                                               ; preds = %2
  br label %13

11:                                               ; preds = %2
  %12 = load i32, ptr %4, align 4
  br label %13

13:                                               ; preds = %11, %10
  %14 = phi i32 [ 624, %10 ], [ %12, %11 ]
  store i32 %14, ptr %7, align 4
  br label %15

15:                                               ; preds = %68, %13
  %16 = load i32, ptr %7, align 4
  %17 = icmp ne i32 %16, 0
  br i1 %17, label %18, label %71

18:                                               ; preds = %15
  %19 = load i32, ptr %5, align 4
  %20 = sext i32 %19 to i64
  %21 = getelementptr inbounds [624 x i64], ptr @mt, i64 0, i64 %20
  %22 = load i64, ptr %21, align 8
  %23 = load i32, ptr %5, align 4
  %24 = sub nsw i32 %23, 1
  %25 = sext i32 %24 to i64
  %26 = getelementptr inbounds [624 x i64], ptr @mt, i64 0, i64 %25
  %27 = load i64, ptr %26, align 8
  %28 = load i32, ptr %5, align 4
  %29 = sub nsw i32 %28, 1
  %30 = sext i32 %29 to i64
  %31 = getelementptr inbounds [624 x i64], ptr @mt, i64 0, i64 %30
  %32 = load i64, ptr %31, align 8
  %33 = lshr i64 %32, 30
  %34 = xor i64 %27, %33
  %35 = mul i64 %34, 1664525
  %36 = xor i64 %22, %35
  %37 = load ptr, ptr %3, align 8
  %38 = load i32, ptr %6, align 4
  %39 = sext i32 %38 to i64
  %40 = getelementptr inbounds i64, ptr %37, i64 %39
  %41 = load i64, ptr %40, align 8
  %42 = add i64 %36, %41
  %43 = load i32, ptr %6, align 4
  %44 = sext i32 %43 to i64
  %45 = add i64 %42, %44
  %46 = load i32, ptr %5, align 4
  %47 = sext i32 %46 to i64
  %48 = getelementptr inbounds [624 x i64], ptr @mt, i64 0, i64 %47
  store i64 %45, ptr %48, align 8
  %49 = load i32, ptr %5, align 4
  %50 = sext i32 %49 to i64
  %51 = getelementptr inbounds [624 x i64], ptr @mt, i64 0, i64 %50
  %52 = load i64, ptr %51, align 8
  %53 = and i64 %52, 4294967295
  store i64 %53, ptr %51, align 8
  %54 = load i32, ptr %5, align 4
  %55 = add nsw i32 %54, 1
  store i32 %55, ptr %5, align 4
  %56 = load i32, ptr %6, align 4
  %57 = add nsw i32 %56, 1
  store i32 %57, ptr %6, align 4
  %58 = load i32, ptr %5, align 4
  %59 = icmp sge i32 %58, 624
  br i1 %59, label %60, label %62

60:                                               ; preds = %18
  %61 = load i64, ptr getelementptr inbounds ([624 x i64], ptr @mt, i64 0, i64 623), align 8
  store i64 %61, ptr @mt, align 16
  store i32 1, ptr %5, align 4
  br label %62

62:                                               ; preds = %60, %18
  %63 = load i32, ptr %6, align 4
  %64 = load i32, ptr %4, align 4
  %65 = icmp sge i32 %63, %64
  br i1 %65, label %66, label %67

66:                                               ; preds = %62
  store i32 0, ptr %6, align 4
  br label %67

67:                                               ; preds = %66, %62
  br label %68

68:                                               ; preds = %67
  %69 = load i32, ptr %7, align 4
  %70 = add nsw i32 %69, -1
  store i32 %70, ptr %7, align 4
  br label %15

71:                                               ; preds = %15
  store i32 623, ptr %7, align 4
  br label %72

72:                                               ; preds = %112, %71
  %73 = load i32, ptr %7, align 4
  %74 = icmp ne i32 %73, 0
  br i1 %74, label %75, label %115

75:                                               ; preds = %72
  %76 = load i32, ptr %5, align 4
  %77 = sext i32 %76 to i64
  %78 = getelementptr inbounds [624 x i64], ptr @mt, i64 0, i64 %77
  %79 = load i64, ptr %78, align 8
  %80 = load i32, ptr %5, align 4
  %81 = sub nsw i32 %80, 1
  %82 = sext i32 %81 to i64
  %83 = getelementptr inbounds [624 x i64], ptr @mt, i64 0, i64 %82
  %84 = load i64, ptr %83, align 8
  %85 = load i32, ptr %5, align 4
  %86 = sub nsw i32 %85, 1
  %87 = sext i32 %86 to i64
  %88 = getelementptr inbounds [624 x i64], ptr @mt, i64 0, i64 %87
  %89 = load i64, ptr %88, align 8
  %90 = lshr i64 %89, 30
  %91 = xor i64 %84, %90
  %92 = mul i64 %91, 1566083941
  %93 = xor i64 %79, %92
  %94 = load i32, ptr %5, align 4
  %95 = sext i32 %94 to i64
  %96 = sub i64 %93, %95
  %97 = load i32, ptr %5, align 4
  %98 = sext i32 %97 to i64
  %99 = getelementptr inbounds [624 x i64], ptr @mt, i64 0, i64 %98
  store i64 %96, ptr %99, align 8
  %100 = load i32, ptr %5, align 4
  %101 = sext i32 %100 to i64
  %102 = getelementptr inbounds [624 x i64], ptr @mt, i64 0, i64 %101
  %103 = load i64, ptr %102, align 8
  %104 = and i64 %103, 4294967295
  store i64 %104, ptr %102, align 8
  %105 = load i32, ptr %5, align 4
  %106 = add nsw i32 %105, 1
  store i32 %106, ptr %5, align 4
  %107 = load i32, ptr %5, align 4
  %108 = icmp sge i32 %107, 624
  br i1 %108, label %109, label %111

109:                                              ; preds = %75
  %110 = load i64, ptr getelementptr inbounds ([624 x i64], ptr @mt, i64 0, i64 623), align 8
  store i64 %110, ptr @mt, align 16
  store i32 1, ptr %5, align 4
  br label %111

111:                                              ; preds = %109, %75
  br label %112

112:                                              ; preds = %111
  %113 = load i32, ptr %7, align 4
  %114 = add nsw i32 %113, -1
  store i32 %114, ptr %7, align 4
  br label %72

115:                                              ; preds = %72
  store i64 2147483648, ptr @mt, align 16
  ret void
}