; Function Attrs: nofree norecurse nosync nounwind memory(readwrite, argmem: read, inaccessiblemem: none) uwtable
define void @init_by_array(ptr nocapture noundef readonly %0, i32 noundef %1) local_unnamed_addr #1 {
  store i64 19650218, ptr @mt, align 16
  br label %3

3:                                                ; preds = %3, %2
  %4 = phi i64 [ 19650218, %2 ], [ %10, %3 ]
  %indvars.iv.i = phi i64 [ 1, %2 ], [ %indvars.iv.next.i, %3 ]
  %5 = lshr i64 %4, 30
  %6 = xor i64 %5, %4
  %7 = mul nuw nsw i64 %6, 1812433253
  %8 = add nuw i64 %7, %indvars.iv.i
  %9 = getelementptr inbounds [624 x i64], ptr @mt, i64 0, i64 %indvars.iv.i
  %10 = and i64 %8, 4294967295
  store i64 %10, ptr %9, align 8
  %indvars.iv.next.i = add nuw nsw i64 %indvars.iv.i, 1
  %exitcond.not.i = icmp eq i64 %indvars.iv.next.i, 624
  br i1 %exitcond.not.i, label %init_genrand.exit, label %3

init_genrand.exit:                                ; preds = %3
  store i32 624, ptr @mti, align 4
  %11 = tail call i32 @llvm.smax.i32(i32 %1, i32 624)
  br label %12

12:                                               ; preds = %init_genrand.exit, %35
  %.035 = phi i32 [ %11, %init_genrand.exit ], [ %36, %35 ]
  %.02634 = phi i32 [ 0, %init_genrand.exit ], [ %spec.store.select, %35 ]
  %.02733 = phi i32 [ 1, %init_genrand.exit ], [ %.128, %35 ]
  %13 = sext i32 %.02733 to i64
  %14 = getelementptr inbounds [624 x i64], ptr @mt, i64 0, i64 %13
  %15 = load i64, ptr %14, align 8
  %16 = add nsw i32 %.02733, -1
  %17 = sext i32 %16 to i64
  %18 = getelementptr inbounds [624 x i64], ptr @mt, i64 0, i64 %17
  %19 = load i64, ptr %18, align 8
  %20 = lshr i64 %19, 30
  %21 = xor i64 %20, %19
  %22 = mul i64 %21, 1664525
  %23 = xor i64 %22, %15
  %24 = sext i32 %.02634 to i64
  %25 = getelementptr inbounds i64, ptr %0, i64 %24
  %26 = load i64, ptr %25, align 8
  %27 = add i64 %26, %24
  %28 = add i64 %27, %23
  %29 = and i64 %28, 4294967295
  store i64 %29, ptr %14, align 8
  %30 = add nsw i32 %.02733, 1
  %31 = add nsw i32 %.02634, 1
  %32 = icmp sgt i32 %.02733, 622
  br i1 %32, label %33, label %35

33:                                               ; preds = %12
  %34 = load i64, ptr getelementptr inbounds ([624 x i64], ptr @mt, i64 0, i64 623), align 8
  store i64 %34, ptr @mt, align 16
  br label %35

35:                                               ; preds = %33, %12
  %.128 = phi i32 [ 1, %33 ], [ %30, %12 ]
  %.not32 = icmp slt i32 %31, %1
  %spec.store.select = select i1 %.not32, i32 %31, i32 0
  %36 = add nsw i32 %.035, -1
  %.not = icmp eq i32 %36, 0
  br i1 %.not, label %.preheader, label %12

.preheader:                                       ; preds = %35, %54
  %.137 = phi i32 [ %55, %54 ], [ 623, %35 ]
  %.236 = phi i32 [ %.3, %54 ], [ %.128, %35 ]
  %37 = sext i32 %.236 to i64
  %38 = getelementptr inbounds [624 x i64], ptr @mt, i64 0, i64 %37
  %39 = load i64, ptr %38, align 8
  %40 = add nsw i32 %.236, -1
  %41 = sext i32 %40 to i64
  %42 = getelementptr inbounds [624 x i64], ptr @mt, i64 0, i64 %41
  %43 = load i64, ptr %42, align 8
  %44 = lshr i64 %43, 30
  %45 = xor i64 %44, %43
  %46 = mul i64 %45, 1566083941
  %47 = xor i64 %46, %39
  %48 = sub i64 %47, %37
  %49 = and i64 %48, 4294967295
  store i64 %49, ptr %38, align 8
  %50 = add nsw i32 %.236, 1
  %51 = icmp sgt i32 %.236, 622
  br i1 %51, label %52, label %54

52:                                               ; preds = %.preheader
  %53 = load i64, ptr getelementptr inbounds ([624 x i64], ptr @mt, i64 0, i64 623), align 8
  store i64 %53, ptr @mt, align 16
  br label %54

54:                                               ; preds = %.preheader, %52
  %.3 = phi i32 [ 1, %52 ], [ %50, %.preheader ]
  %55 = add nsw i32 %.137, -1
  %.not31 = icmp eq i32 %55, 0
  br i1 %.not31, label %56, label %.preheader

56:                                               ; preds = %54
  store i64 2147483648, ptr @mt, align 16
  ret void
}